target datalayout = "e-m:e-p270:32:32-p271:32:32-p272:64:64-i64:64-i128:128-f80:128-n8:16:32:64-S128"
target triple = "x86_64-pc-linux-gnu"

%struct.sp_int = type { i16, i16, [129 x i64] }

; Function Attrs: nounwind uwtable
define internal void @_sp_sub_off(ptr noundef %0, ptr noundef %1, ptr noundef %2, i32 noundef %3) #0 {
  %5 = alloca ptr, align 8
  %6 = alloca ptr, align 8
  %7 = alloca ptr, align 8
  %8 = alloca i32, align 4
  %9 = alloca i16, align 2
  %10 = alloca i16, align 2
  %11 = alloca i128, align 16
  %12 = alloca i32, align 4
  store ptr %0, ptr %5, align 8, !tbaa !3
  store ptr %1, ptr %6, align 8, !tbaa !3
  store ptr %2, ptr %7, align 8, !tbaa !3
  store i32 %3, ptr %8, align 4, !tbaa !8
  call void @llvm.lifetime.start.p0(i64 2, ptr %9) #8
  store i16 0, ptr %9, align 2, !tbaa !32
  call void @llvm.lifetime.start.p0(i64 2, ptr %10) #8
  call void @llvm.lifetime.start.p0(i64 16, ptr %11) #8
  store i128 0, ptr %11, align 16, !tbaa !47
  %13 = load ptr, ptr %7, align 8, !tbaa !3
  %14 = load ptr, ptr %5, align 8, !tbaa !3
  %15 = icmp ne ptr %13, %14
  br i1 %15, label %16, label %48

16:                                               ; preds = %4
  br label %17

17:                                               ; preds = %44, %16
  %18 = load i16, ptr %9, align 2, !tbaa !32
  %19 = zext i16 %18 to i32
  %20 = load i32, ptr %8, align 4, !tbaa !8
  %21 = icmp ult i32 %19, %20
  br i1 %21, label %22, label %30

22:                                               ; preds = %17
  %23 = load i16, ptr %9, align 2, !tbaa !32
  %24 = zext i16 %23 to i32
  %25 = load ptr, ptr %5, align 8, !tbaa !3
  %26 = getelementptr inbounds nuw %struct.sp_int, ptr %25, i32 0, i32 0
  %27 = load i16, ptr %26, align 8, !tbaa !15
  %28 = zext i16 %27 to i32
  %29 = icmp slt i32 %24, %28
  br label %30

30:                                               ; preds = %22, %17
  %31 = phi i1 [ false, %17 ], [ %29, %22 ]
  br i1 %31, label %32, label %47

32:                                               ; preds = %30
  %33 = load ptr, ptr %5, align 8, !tbaa !3
  %34 = getelementptr inbounds nuw %struct.sp_int, ptr %33, i32 0, i32 2
  %35 = load i16, ptr %9, align 2, !tbaa !32
  %36 = zext i16 %35 to i64
  %37 = getelementptr inbounds nuw [129 x i64], ptr %34, i64 0, i64 %36
  %38 = load i64, ptr %37, align 8, !tbaa !16
  %39 = load ptr, ptr %7, align 8, !tbaa !3
  %40 = getelementptr inbounds nuw %struct.sp_int, ptr %39, i32 0, i32 2
  %41 = load i16, ptr %9, align 2, !tbaa !32
  %42 = zext i16 %41 to i64
  %43 = getelementptr inbounds nuw [129 x i64], ptr %40, i64 0, i64 %42
  store i64 %38, ptr %43, align 8, !tbaa !16
  br label %44

44:                                               ; preds = %32
  %45 = load i16, ptr %9, align 2, !tbaa !32
  %46 = add i16 %45, 1
  store i16 %46, ptr %9, align 2, !tbaa !32
  br label %17, !llvm.loop !67

47:                                               ; preds = %30
  br label %51

48:                                               ; preds = %4
  %49 = load i32, ptr %8, align 4, !tbaa !8
  %50 = trunc i32 %49 to i16
  store i16 %50, ptr %9, align 2, !tbaa !32
  br label %51

51:                                               ; preds = %48, %47
  store i16 0, ptr %10, align 2, !tbaa !32
  br label %52

52:                                               ; preds = %98, %51
  %53 = load i16, ptr %9, align 2, !tbaa !32
  %54 = zext i16 %53 to i32
  %55 = load ptr, ptr %5, align 8, !tbaa !3
  %56 = getelementptr inbounds nuw %struct.sp_int, ptr %55, i32 0, i32 0
  %57 = load i16, ptr %56, align 8, !tbaa !15
  %58 = zext i16 %57 to i32
  %59 = icmp slt i32 %54, %58
  br i1 %59, label %60, label %68

60:                                               ; preds = %52
  %61 = load i16, ptr %10, align 2, !tbaa !32
  %62 = zext i16 %61 to i32
  %63 = load ptr, ptr %6, align 8, !tbaa !3
  %64 = getelementptr inbounds nuw %struct.sp_int, ptr %63, i32 0, i32 0
  %65 = load i16, ptr %64, align 8, !tbaa !15
  %66 = zext i16 %65 to i32
  %67 = icmp slt i32 %62, %66
  br label %68

68:                                               ; preds = %60, %52
  %69 = phi i1 [ false, %52 ], [ %67, %60 ]
  br i1 %69, label %70, label %103

70:                                               ; preds = %68
  %71 = load ptr, ptr %5, align 8, !tbaa !3
  %72 = getelementptr inbounds nuw %struct.sp_int, ptr %71, i32 0, i32 2
  %73 = load i16, ptr %9, align 2, !tbaa !32
  %74 = zext i16 %73 to i64
  %75 = getelementptr inbounds nuw [129 x i64], ptr %72, i64 0, i64 %74
  %76 = load i64, ptr %75, align 8, !tbaa !16
  %77 = zext i64 %76 to i128
  %78 = load i128, ptr %11, align 16, !tbaa !47
  %79 = add nsw i128 %78, %77
  store i128 %79, ptr %11, align 16, !tbaa !47
  %80 = load ptr, ptr %6, align 8, !tbaa !3
  %81 = getelementptr inbounds nuw %struct.sp_int, ptr %80, i32 0, i32 2
  %82 = load i16, ptr %10, align 2, !tbaa !32
  %83 = zext i16 %82 to i64
  %84 = getelementptr inbounds nuw [129 x i64], ptr %81, i64 0, i64 %83
  %85 = load i64, ptr %84, align 8, !tbaa !16
  %86 = zext i64 %85 to i128
  %87 = load i128, ptr %11, align 16, !tbaa !47
  %88 = sub nsw i128 %87, %86
  store i128 %88, ptr %11, align 16, !tbaa !47
  %89 = load i128, ptr %11, align 16, !tbaa !47
  %90 = trunc i128 %89 to i64
  %91 = load ptr, ptr %7, align 8, !tbaa !3
  %92 = getelementptr inbounds nuw %struct.sp_int, ptr %91, i32 0, i32 2
  %93 = load i16, ptr %9, align 2, !tbaa !32
  %94 = zext i16 %93 to i64
  %95 = getelementptr inbounds nuw [129 x i64], ptr %92, i64 0, i64 %94
  store i64 %90, ptr %95, align 8, !tbaa !16
  %96 = load i128, ptr %11, align 16, !tbaa !47
  %97 = ashr i128 %96, 64
  store i128 %97, ptr %11, align 16, !tbaa !47
  br label %98

98:                                               ; preds = %70
  %99 = load i16, ptr %9, align 2, !tbaa !32
  %100 = add i16 %99, 1
  store i16 %100, ptr %9, align 2, !tbaa !32
  %101 = load i16, ptr %10, align 2, !tbaa !32
  %102 = add i16 %101, 1
  store i16 %102, ptr %10, align 2, !tbaa !32
  br label %52, !llvm.loop !68

103:                                              ; preds = %68
  br label %104

104:                                              ; preds = %131, %103
  %105 = load i16, ptr %9, align 2, !tbaa !32
  %106 = zext i16 %105 to i32
  %107 = load ptr, ptr %5, align 8, !tbaa !3
  %108 = getelementptr inbounds nuw %struct.sp_int, ptr %107, i32 0, i32 0
  %109 = load i16, ptr %108, align 8, !tbaa !15
  %110 = zext i16 %109 to i32
  %111 = icmp slt i32 %106, %110
  br i1 %111, label %112, label %134

112:                                              ; preds = %104
  %113 = load ptr, ptr %5, align 8, !tbaa !3
  %114 = getelementptr inbounds nuw %struct.sp_int, ptr %113, i32 0, i32 2
  %115 = load i16, ptr %9, align 2, !tbaa !32
  %116 = zext i16 %115 to i64
  %117 = getelementptr inbounds nuw [129 x i64], ptr %114, i64 0, i64 %116
  %118 = load i64, ptr %117, align 8, !tbaa !16
  %119 = zext i64 %118 to i128
  %120 = load i128, ptr %11, align 16, !tbaa !47
  %121 = add nsw i128 %120, %119
  store i128 %121, ptr %11, align 16, !tbaa !47
  %122 = load i128, ptr %11, align 16, !tbaa !47
  %123 = trunc i128 %122 to i64
  %124 = load ptr, ptr %7, align 8, !tbaa !3
  %125 = getelementptr inbounds nuw %struct.sp_int, ptr %124, i32 0, i32 2
  %126 = load i16, ptr %9, align 2, !tbaa !32
  %127 = zext i16 %126 to i64
  %128 = getelementptr inbounds nuw [129 x i64], ptr %125, i64 0, i64 %127
  store i64 %123, ptr %128, align 8, !tbaa !16
  %129 = load i128, ptr %11, align 16, !tbaa !47
  %130 = ashr i128 %129, 64
  store i128 %130, ptr %11, align 16, !tbaa !47
  br label %131

131:                                              ; preds = %112
  %132 = load i16, ptr %9, align 2, !tbaa !32
  %133 = add i16 %132, 1
  store i16 %133, ptr %9, align 2, !tbaa !32
  br label %104, !llvm.loop !69

134:                                              ; preds = %104
  %135 = load i16, ptr %9, align 2, !tbaa !32
  %136 = load ptr, ptr %7, align 8, !tbaa !3
  %137 = getelementptr inbounds nuw %struct.sp_int, ptr %136, i32 0, i32 0
  store i16 %135, ptr %137, align 8, !tbaa !15
  br label %138

138:                                              ; preds = %134
  call void @llvm.lifetime.start.p0(i64 4, ptr %12) #8
  %139 = load ptr, ptr %7, align 8, !tbaa !3
  %140 = getelementptr inbounds nuw %struct.sp_int, ptr %139, i32 0, i32 0
  %141 = load i16, ptr %140, align 8, !tbaa !15
  %142 = zext i16 %141 to i32
  %143 = icmp sgt i32 %142, 0
  br i1 %143, label %144, label %173

144:                                              ; preds = %138
  %145 = load ptr, ptr %7, align 8, !tbaa !3
  %146 = getelementptr inbounds nuw %struct.sp_int, ptr %145, i32 0, i32 0
  %147 = load i16, ptr %146, align 8, !tbaa !15
  %148 = zext i16 %147 to i32
  %149 = sub nsw i32 %148, 1
  store i32 %149, ptr %12, align 4, !tbaa !8
  br label %150

150:                                              ; preds = %164, %144
  %151 = load i32, ptr %12, align 4, !tbaa !8
  %152 = icmp sge i32 %151, 0
  br i1 %152, label %153, label %161

153:                                              ; preds = %150
  %154 = load ptr, ptr %7, align 8, !tbaa !3
  %155 = getelementptr inbounds nuw %struct.sp_int, ptr %154, i32 0, i32 2
  %156 = load i32, ptr %12, align 4, !tbaa !8
  %157 = sext i32 %156 to i64
  %158 = getelementptr inbounds [129 x i64], ptr %155, i64 0, i64 %157
  %159 = load i64, ptr %158, align 8, !tbaa !16
  %160 = icmp eq i64 %159, 0
  br label %161

161:                                              ; preds = %153, %150
  %162 = phi i1 [ false, %150 ], [ %160, %153 ]
  br i1 %162, label %163, label %167

163:                                              ; preds = %161
  br label %164

164:                                              ; preds = %163
  %165 = load i32, ptr %12, align 4, !tbaa !8
  %166 = add nsw i32 %165, -1
  store i32 %166, ptr %12, align 4, !tbaa !8
  br label %150, !llvm.loop !70

167:                                              ; preds = %161
  %168 = load i32, ptr %12, align 4, !tbaa !8
  %169 = add nsw i32 %168, 1
  %170 = trunc i32 %169 to i16
  %171 = load ptr, ptr %7, align 8, !tbaa !3
  %172 = getelementptr inbounds nuw %struct.sp_int, ptr %171, i32 0, i32 0
  store i16 %170, ptr %172, align 8, !tbaa !15
  br label %173

173:                                              ; preds = %167, %138
  call void @llvm.lifetime.end.p0(i64 4, ptr %12) #8
  br label %174

174:                                              ; preds = %173
  br label %175

175:                                              ; preds = %174
  call void @llvm.lifetime.end.p0(i64 16, ptr %11) #8
  call void @llvm.lifetime.end.p0(i64 2, ptr %10) #8
  call void @llvm.lifetime.end.p0(i64 2, ptr %9) #8
  ret void
}

; Function Attrs: nounwind uwtable
define i32 @sp_sub(ptr noundef %0, ptr noundef %1, ptr noundef %2) #0 {
  %4 = alloca ptr, align 8
  %5 = alloca ptr, align 8
  %6 = alloca ptr, align 8
  %7 = alloca i32, align 4
  store ptr %0, ptr %4, align 8, !tbaa !3
  store ptr %1, ptr %5, align 8, !tbaa !3
  store ptr %2, ptr %6, align 8, !tbaa !3
  call void @llvm.lifetime.start.p0(i64 4, ptr %7) #8
  store i32 0, ptr %7, align 4, !tbaa !8
  %8 = load ptr, ptr %4, align 8, !tbaa !3
  %9 = icmp eq ptr %8, null
  br i1 %9, label %16, label %10

10:                                               ; preds = %3
  %11 = load ptr, ptr %5, align 8, !tbaa !3
  %12 = icmp eq ptr %11, null
  br i1 %12, label %16, label %13

13:                                               ; preds = %10
  %14 = load ptr, ptr %6, align 8, !tbaa !3
  %15 = icmp eq ptr %14, null
  br i1 %15, label %16, label %17

16:                                               ; preds = %13, %10, %3
  store i32 -98, ptr %7, align 4, !tbaa !8
  br label %17

17:                                               ; preds = %16, %13
  %18 = load i32, ptr %7, align 4, !tbaa !8
  %19 = icmp eq i32 %18, 0
  br i1 %19, label %20, label %41

20:                                               ; preds = %17
  %21 = load ptr, ptr %4, align 8, !tbaa !3
  %22 = getelementptr inbounds nuw %struct.sp_int, ptr %21, i32 0, i32 0
  %23 = load i16, ptr %22, align 8, !tbaa !15
  %24 = zext i16 %23 to i32
  %25 = load ptr, ptr %6, align 8, !tbaa !3
  %26 = getelementptr inbounds nuw %struct.sp_int, ptr %25, i32 0, i32 1
  %27 = load i16, ptr %26, align 2, !tbaa !12
  %28 = zext i16 %27 to i32
  %29 = icmp sge i32 %24, %28
  br i1 %29, label %40, label %30

30:                                               ; preds = %20
  %31 = load ptr, ptr %5, align 8, !tbaa !3
  %32 = getelementptr inbounds nuw %struct.sp_int, ptr %31, i32 0, i32 0
  %33 = load i16, ptr %32, align 8, !tbaa !15
  %34 = zext i16 %33 to i32
  %35 = load ptr, ptr %6, align 8, !tbaa !3
  %36 = getelementptr inbounds nuw %struct.sp_int, ptr %35, i32 0, i32 1
  %37 = load i16, ptr %36, align 2, !tbaa !12
  %38 = zext i16 %37 to i32
  %39 = icmp sge i32 %34, %38
  br i1 %39, label %40, label %41

40:                                               ; preds = %30, %20
  store i32 -98, ptr %7, align 4, !tbaa !8
  br label %41

41:                                               ; preds = %40, %30, %17
  %42 = load i32, ptr %7, align 4, !tbaa !8
  %43 = icmp eq i32 %42, 0
  br i1 %43, label %44, label %48

44:                                               ; preds = %41
  %45 = load ptr, ptr %4, align 8, !tbaa !3
  %46 = load ptr, ptr %5, align 8, !tbaa !3
  %47 = load ptr, ptr %6, align 8, !tbaa !3
  call void @_sp_sub_off(ptr noundef %45, ptr noundef %46, ptr noundef %47, i32 noundef 0)
  br label %48

48:                                               ; preds = %44, %41
  %49 = load i32, ptr %7, align 4, !tbaa !8
  call void @llvm.lifetime.end.p0(i64 4, ptr %7) #8
  ret i32 %49
}