; Function Attrs: nofree norecurse nosync nounwind memory(argmem: readwrite) uwtable
define range(i32 -98, 1) i32 @sp_sub(ptr noundef readonly captures(address_is_null) %0, ptr noundef readonly captures(address_is_null) %1, ptr noundef captures(address_is_null) %2) local_unnamed_addr #8 {
  %4 = icmp ne ptr %0, null
  %5 = icmp ne ptr %1, null
  %or.cond.not18 = and i1 %4, %5
  %6 = icmp ne ptr %2, null
  %or.cond3.not = and i1 %or.cond.not18, %6
  br i1 %or.cond3.not, label %7, label %_sp_sub_off.exit

7:                                                ; preds = %3
  %8 = load i16, ptr %0, align 8, !tbaa !12
  %9 = getelementptr inbounds nuw i8, ptr %2, i64 2
  %10 = load i16, ptr %9, align 2, !tbaa !10
  %.not = icmp ult i16 %8, %10
  br i1 %.not, label %11, label %_sp_sub_off.exit

11:                                               ; preds = %7
  %12 = load i16, ptr %1, align 8, !tbaa !12
  %.not19 = icmp ult i16 %12, %10
  br i1 %.not19, label %.thread, label %_sp_sub_off.exit

.thread:                                          ; preds = %11
  %.not25 = icmp eq i16 %8, 0
  br i1 %.not25, label %.critedge2.i, label %.lr.ph65.i

.lr.ph65.i:                                       ; preds = %.thread
  %13 = getelementptr inbounds nuw i8, ptr %0, i64 8
  %14 = getelementptr inbounds nuw i8, ptr %1, i64 8
  %15 = getelementptr inbounds nuw i8, ptr %2, i64 8
  %wide.trip.count89.i = zext i16 %12 to i64
  %zext = zext i16 %8 to i64
  br label %16

16:                                               ; preds = %17, %.lr.ph65.i
  %indvars.iv83.i = phi i64 [ 0, %.lr.ph65.i ], [ %indvars.iv.next84.i, %17 ]
  %.05164.i = phi i128 [ 0, %.lr.ph65.i ], [ %28, %17 ]
  %exitcond90.not.i = icmp eq i64 %indvars.iv83.i, %wide.trip.count89.i
  br i1 %exitcond90.not.i, label %.critedge2.i, label %17

17:                                               ; preds = %16
  %18 = getelementptr inbounds nuw [129 x i64], ptr %13, i64 0, i64 %indvars.iv83.i
  %19 = load i64, ptr %18, align 8, !tbaa !8
  %20 = zext i64 %19 to i128
  %21 = add nsw i128 %.05164.i, %20
  %22 = getelementptr inbounds nuw [129 x i64], ptr %14, i64 0, i64 %indvars.iv83.i
  %23 = load i64, ptr %22, align 8, !tbaa !8
  %24 = zext i64 %23 to i128
  %25 = sub nsw i128 %21, %24
  %26 = trunc i128 %25 to i64
  %27 = getelementptr inbounds nuw [129 x i64], ptr %15, i64 0, i64 %indvars.iv83.i
  store i64 %26, ptr %27, align 8, !tbaa !8
  %28 = ashr i128 %25, 64
  %indvars.iv.next84.i = add nuw nsw i64 %indvars.iv83.i, 1
  %29 = icmp eq i64 %indvars.iv.next84.i, %zext
  br i1 %29, label %._crit_edge.i, label %16, !llvm.loop !48

.critedge2.i:                                     ; preds = %16, %.thread
  %.2.lcssa.i = phi i16 [ 0, %.thread ], [ %12, %16 ]
  %.051.lcssa.i = phi i128 [ 0, %.thread ], [ %.05164.i, %16 ]
  %30 = icmp ult i16 %.2.lcssa.i, %8
  br i1 %30, label %.lr.ph75.i, label %._crit_edge.i

.lr.ph75.i:                                       ; preds = %.critedge2.i
  %31 = getelementptr inbounds nuw i8, ptr %0, i64 8
  %32 = getelementptr inbounds nuw i8, ptr %2, i64 8
  %33 = zext i16 %.2.lcssa.i to i64
  %wide.trip.count96.i = zext i16 %8 to i64
  br label %34

34:                                               ; preds = %34, %.lr.ph75.i
  %indvars.iv92.i = phi i64 [ %33, %.lr.ph75.i ], [ %indvars.iv.next93.i, %34 ]
  %.174.i = phi i128 [ %.051.lcssa.i, %.lr.ph75.i ], [ %41, %34 ]
  %35 = getelementptr inbounds nuw [129 x i64], ptr %31, i64 0, i64 %indvars.iv92.i
  %36 = load i64, ptr %35, align 8, !tbaa !8
  %37 = zext i64 %36 to i128
  %38 = add nsw i128 %.174.i, %37
  %39 = trunc i128 %38 to i64
  %40 = getelementptr inbounds nuw [129 x i64], ptr %32, i64 0, i64 %indvars.iv92.i
  store i64 %39, ptr %40, align 8, !tbaa !8
  %41 = ashr i128 %38, 64
  %indvars.iv.next93.i = add nuw nsw i64 %indvars.iv92.i, 1
  %exitcond97.not.i = icmp eq i64 %indvars.iv.next93.i, %wide.trip.count96.i
  br i1 %exitcond97.not.i, label %._crit_edge.i, label %34, !llvm.loop !49

._crit_edge.i:                                    ; preds = %17, %34, %.critedge2.i
  %.3.lcssa.i = phi i16 [ %.2.lcssa.i, %.critedge2.i ], [ %8, %34 ], [ %8, %17 ]
  store i16 %.3.lcssa.i, ptr %2, align 8, !tbaa !12
  %.not57.i = icmp eq i16 %.3.lcssa.i, 0
  br i1 %.not57.i, label %_sp_sub_off.exit, label %.preheader.i

.preheader.i:                                     ; preds = %._crit_edge.i
  %42 = getelementptr inbounds nuw i8, ptr %2, i64 8
  %43 = zext i16 %.3.lcssa.i to i64
  br label %44

44:                                               ; preds = %46, %.preheader.i
  %indvars.iv98.i = phi i64 [ %43, %.preheader.i ], [ %indvars.iv.next99.i, %46 ]
  %45 = icmp sgt i64 %indvars.iv98.i, 0
  br i1 %45, label %46, label %.critedge4.i

46:                                               ; preds = %44
  %indvars.iv.next99.i = add nsw i64 %indvars.iv98.i, -1
  %47 = getelementptr inbounds nuw [129 x i64], ptr %42, i64 0, i64 %indvars.iv.next99.i
  %48 = load i64, ptr %47, align 8, !tbaa !8
  %49 = icmp eq i64 %48, 0
  br i1 %49, label %44, label %.critedge4.split.loop.exit105.i, !llvm.loop !50

.critedge4.split.loop.exit105.i:                  ; preds = %46
  %50 = trunc i64 %indvars.iv98.i to i16
  br label %.critedge4.i

.critedge4.i:                                     ; preds = %44, %.critedge4.split.loop.exit105.i
  %.0.in.lcssa.i = phi i16 [ %50, %.critedge4.split.loop.exit105.i ], [ 0, %44 ]
  store i16 %.0.in.lcssa.i, ptr %2, align 8, !tbaa !12
  br label %_sp_sub_off.exit

_sp_sub_off.exit:                                 ; preds = %3, %11, %7, %.critedge4.i, %._crit_edge.i
  %.121 = phi i32 [ 0, %._crit_edge.i ], [ 0, %.critedge4.i ], [ -98, %7 ], [ -98, %11 ], [ -98, %3 ]
  ret i32 %.121
}